target datalayout = "e-m:e-p270:32:32-p271:32:32-p272:64:64-i64:64-i128:128-f80:128-n8:16:32:64-S128"
target triple = "x86_64-pc-linux-gnu"

%struct.stbtt__buf = type { ptr, i32, i32 }
%struct.stbtt_fontinfo = type { ptr, ptr, i32, i32, i32, i32, i32, i32, i32, i32, i32, i32, i32, i32, %struct.stbtt__buf, %struct.stbtt__buf, %struct.stbtt__buf, %struct.stbtt__buf, %struct.stbtt__buf, %struct.stbtt__buf }
%struct.stbtt__csctx = type { i32, i32, float, float, float, float, i32, i32, i32, i32, ptr, i32 }
%struct.stbtt__bitmap = type { i32, i32, i32, ptr }

; Function Attrs: nounwind uwtable
define i32 @stbtt__GetGlyphShapeT2(ptr noundef %0, i32 noundef %1, ptr noundef %2) #0 {
  %4 = alloca i32, align 4
  %5 = alloca ptr, align 8
  %6 = alloca i32, align 4
  %7 = alloca ptr, align 8
  %8 = alloca %struct.stbtt__csctx, align 8
  %9 = alloca %struct.stbtt__csctx, align 8
  %10 = alloca i32, align 4
  store ptr %0, ptr %5, align 8, !tbaa !28
  store i32 %1, ptr %6, align 4, !tbaa !14
  store ptr %2, ptr %7, align 8, !tbaa !3
  call void @llvm.lifetime.start.p0(i64 56, ptr %8) #8
  call void @llvm.memset.p0.i64(ptr align 8 %8, i8 0, i64 56, i1 false)
  %11 = getelementptr inbounds { i32, i32, float, float, float, float, i32, i32, i32, i32, ptr, i32, [4 x i8] }, ptr %8, i32 0, i32 0
  store i32 1, ptr %11, align 8
  call void @llvm.lifetime.start.p0(i64 56, ptr %9) #8
  call void @llvm.memset.p0.i64(ptr align 8 %9, i8 0, i64 56, i1 false)
  %12 = load ptr, ptr %5, align 8, !tbaa !28
  %13 = load i32, ptr %6, align 4, !tbaa !14
  %14 = call i32 @stbtt__run_charstring(ptr noundef %12, i32 noundef %13, ptr noundef %8)
  %15 = icmp ne i32 %14, 0
  br i1 %15, label %16, label %34

16:                                               ; preds = %3
  %17 = getelementptr inbounds nuw %struct.stbtt__csctx, ptr %8, i32 0, i32 11
  %18 = load i32, ptr %17, align 8, !tbaa !62
  %19 = sext i32 %18 to i64
  %20 = mul i64 %19, 14
  %21 = call noalias ptr @malloc(i64 noundef %20) #9
  %22 = load ptr, ptr %7, align 8, !tbaa !3
  store ptr %21, ptr %22, align 8, !tbaa !3
  %23 = load ptr, ptr %7, align 8, !tbaa !3
  %24 = load ptr, ptr %23, align 8, !tbaa !3
  %25 = getelementptr inbounds nuw %struct.stbtt__csctx, ptr %9, i32 0, i32 10
  store ptr %24, ptr %25, align 8, !tbaa !72
  %26 = load ptr, ptr %5, align 8, !tbaa !28
  %27 = load i32, ptr %6, align 4, !tbaa !14
  %28 = call i32 @stbtt__run_charstring(ptr noundef %26, i32 noundef %27, ptr noundef %9)
  %29 = icmp ne i32 %28, 0
  br i1 %29, label %30, label %33

30:                                               ; preds = %16
  %31 = getelementptr inbounds nuw %struct.stbtt__csctx, ptr %9, i32 0, i32 11
  %32 = load i32, ptr %31, align 8, !tbaa !62
  store i32 %32, ptr %4, align 4
  store i32 1, ptr %10, align 4
  br label %36

33:                                               ; preds = %16
  br label %34

34:                                               ; preds = %33, %3
  %35 = load ptr, ptr %7, align 8, !tbaa !3
  store ptr null, ptr %35, align 8, !tbaa !3
  store i32 0, ptr %4, align 4
  store i32 1, ptr %10, align 4
  br label %36

36:                                               ; preds = %34, %30
  call void @llvm.lifetime.end.p0(i64 56, ptr %9) #8
  call void @llvm.lifetime.end.p0(i64 56, ptr %8) #8
  %37 = load i32, ptr %4, align 4
  ret i32 %37
}

; Function Attrs: nounwind uwtable
define void @stbtt_Rasterize(ptr noundef %0, float noundef %1, ptr noundef %2, i32 noundef %3, float noundef %4, float noundef %5, float noundef %6, float noundef %7, i32 noundef %8, i32 noundef %9, i32 noundef %10, ptr noundef %11) #0 {
  %13 = alloca ptr, align 8
  %14 = alloca float, align 4
  %15 = alloca ptr, align 8
  %16 = alloca i32, align 4
  %17 = alloca float, align 4
  %18 = alloca float, align 4
  %19 = alloca float, align 4
  %20 = alloca float, align 4
  %21 = alloca i32, align 4
  %22 = alloca i32, align 4
  %23 = alloca i32, align 4
  %24 = alloca ptr, align 8
  %25 = alloca float, align 4
  %26 = alloca i32, align 4
  %27 = alloca ptr, align 8
  %28 = alloca ptr, align 8
  store ptr %0, ptr %13, align 8, !tbaa !3
  store float %1, ptr %14, align 4, !tbaa !67
  store ptr %2, ptr %15, align 8, !tbaa !3
  store i32 %3, ptr %16, align 4, !tbaa !14
  store float %4, ptr %17, align 4, !tbaa !67
  store float %5, ptr %18, align 4, !tbaa !67
  store float %6, ptr %19, align 4, !tbaa !67
  store float %7, ptr %20, align 4, !tbaa !67
  store i32 %8, ptr %21, align 4, !tbaa !14
  store i32 %9, ptr %22, align 4, !tbaa !14
  store i32 %10, ptr %23, align 4, !tbaa !14
  store ptr %11, ptr %24, align 8, !tbaa !3
  call void @llvm.lifetime.start.p0(i64 4, ptr %25) #8
  %29 = load float, ptr %17, align 4, !tbaa !67
  %30 = load float, ptr %18, align 4, !tbaa !67
  %31 = fcmp ogt float %29, %30
  br i1 %31, label %32, label %34

32:                                               ; preds = %12
  %33 = load float, ptr %18, align 4, !tbaa !67
  br label %36

34:                                               ; preds = %12
  %35 = load float, ptr %17, align 4, !tbaa !67
  br label %36

36:                                               ; preds = %34, %32
  %37 = phi float [ %33, %32 ], [ %35, %34 ]
  store float %37, ptr %25, align 4, !tbaa !67
  call void @llvm.lifetime.start.p0(i64 4, ptr %26) #8
  store i32 0, ptr %26, align 4, !tbaa !14
  call void @llvm.lifetime.start.p0(i64 8, ptr %27) #8
  store ptr null, ptr %27, align 8, !tbaa !22
  call void @llvm.lifetime.start.p0(i64 8, ptr %28) #8
  %38 = load ptr, ptr %15, align 8, !tbaa !3
  %39 = load i32, ptr %16, align 4, !tbaa !14
  %40 = load float, ptr %14, align 4, !tbaa !67
  %41 = load float, ptr %25, align 4, !tbaa !67
  %42 = fdiv float %40, %41
  %43 = load ptr, ptr %24, align 8, !tbaa !3
  %44 = call ptr @stbtt_FlattenCurves(ptr noundef %38, i32 noundef %39, float noundef %42, ptr noundef %27, ptr noundef %26, ptr noundef %43)
  store ptr %44, ptr %28, align 8, !tbaa !3
  %45 = load ptr, ptr %28, align 8, !tbaa !3
  %46 = icmp ne ptr %45, null
  br i1 %46, label %47, label %62

47:                                               ; preds = %36
  %48 = load ptr, ptr %13, align 8, !tbaa !3
  %49 = load ptr, ptr %28, align 8, !tbaa !3
  %50 = load ptr, ptr %27, align 8, !tbaa !22
  %51 = load i32, ptr %26, align 4, !tbaa !14
  %52 = load float, ptr %17, align 4, !tbaa !67
  %53 = load float, ptr %18, align 4, !tbaa !67
  %54 = load float, ptr %19, align 4, !tbaa !67
  %55 = load float, ptr %20, align 4, !tbaa !67
  %56 = load i32, ptr %21, align 4, !tbaa !14
  %57 = load i32, ptr %22, align 4, !tbaa !14
  %58 = load i32, ptr %23, align 4, !tbaa !14
  %59 = load ptr, ptr %24, align 8, !tbaa !3
  call void @stbtt__rasterize(ptr noundef %48, ptr noundef %49, ptr noundef %50, i32 noundef %51, float noundef %52, float noundef %53, float noundef %54, float noundef %55, i32 noundef %56, i32 noundef %57, i32 noundef %58, ptr noundef %59)
  %60 = load ptr, ptr %27, align 8, !tbaa !22
  call void @free(ptr noundef %60) #8
  %61 = load ptr, ptr %28, align 8, !tbaa !3
  call void @free(ptr noundef %61) #8
  br label %62

62:                                               ; preds = %47, %36
  call void @llvm.lifetime.end.p0(i64 8, ptr %28) #8
  call void @llvm.lifetime.end.p0(i64 8, ptr %27) #8
  call void @llvm.lifetime.end.p0(i64 4, ptr %26) #8
  call void @llvm.lifetime.end.p0(i64 4, ptr %25) #8
  ret void
}

; Function Attrs: nounwind uwtable
define void @stbtt_GetGlyphBitmapBoxSubpixel(ptr noundef %0, i32 noundef %1, float noundef %2, float noundef %3, float noundef %4, float noundef %5, ptr noundef %6, ptr noundef %7, ptr noundef %8, ptr noundef %9) #0 {
  %11 = alloca ptr, align 8
  %12 = alloca i32, align 4
  %13 = alloca float, align 4
  %14 = alloca float, align 4
  %15 = alloca float, align 4
  %16 = alloca float, align 4
  %17 = alloca ptr, align 8
  %18 = alloca ptr, align 8
  %19 = alloca ptr, align 8
  %20 = alloca ptr, align 8
  %21 = alloca i32, align 4
  %22 = alloca i32, align 4
  %23 = alloca i32, align 4
  %24 = alloca i32, align 4
  store ptr %0, ptr %11, align 8, !tbaa !28
  store i32 %1, ptr %12, align 4, !tbaa !14
  store float %2, ptr %13, align 4, !tbaa !67
  store float %3, ptr %14, align 4, !tbaa !67
  store float %4, ptr %15, align 4, !tbaa !67
  store float %5, ptr %16, align 4, !tbaa !67
  store ptr %6, ptr %17, align 8, !tbaa !22
  store ptr %7, ptr %18, align 8, !tbaa !22
  store ptr %8, ptr %19, align 8, !tbaa !22
  store ptr %9, ptr %20, align 8, !tbaa !22
  call void @llvm.lifetime.start.p0(i64 4, ptr %21) #8
  store i32 0, ptr %21, align 4, !tbaa !14
  call void @llvm.lifetime.start.p0(i64 4, ptr %22) #8
  store i32 0, ptr %22, align 4, !tbaa !14
  call void @llvm.lifetime.start.p0(i64 4, ptr %23) #8
  call void @llvm.lifetime.start.p0(i64 4, ptr %24) #8
  %25 = load ptr, ptr %11, align 8, !tbaa !28
  %26 = load i32, ptr %12, align 4, !tbaa !14
  %27 = call i32 @stbtt_GetGlyphBox(ptr noundef %25, i32 noundef %26, ptr noundef %21, ptr noundef %22, ptr noundef %23, ptr noundef %24)
  %28 = icmp ne i32 %27, 0
  br i1 %28, label %50, label %29

29:                                               ; preds = %10
  %30 = load ptr, ptr %17, align 8, !tbaa !22
  %31 = icmp ne ptr %30, null
  br i1 %31, label %32, label %34

32:                                               ; preds = %29
  %33 = load ptr, ptr %17, align 8, !tbaa !22
  store i32 0, ptr %33, align 4, !tbaa !14
  br label %34

34:                                               ; preds = %32, %29
  %35 = load ptr, ptr %18, align 8, !tbaa !22
  %36 = icmp ne ptr %35, null
  br i1 %36, label %37, label %39

37:                                               ; preds = %34
  %38 = load ptr, ptr %18, align 8, !tbaa !22
  store i32 0, ptr %38, align 4, !tbaa !14
  br label %39

39:                                               ; preds = %37, %34
  %40 = load ptr, ptr %19, align 8, !tbaa !22
  %41 = icmp ne ptr %40, null
  br i1 %41, label %42, label %44

42:                                               ; preds = %39
  %43 = load ptr, ptr %19, align 8, !tbaa !22
  store i32 0, ptr %43, align 4, !tbaa !14
  br label %44

44:                                               ; preds = %42, %39
  %45 = load ptr, ptr %20, align 8, !tbaa !22
  %46 = icmp ne ptr %45, null
  br i1 %46, label %47, label %49

47:                                               ; preds = %44
  %48 = load ptr, ptr %20, align 8, !tbaa !22
  store i32 0, ptr %48, align 4, !tbaa !14
  br label %49

49:                                               ; preds = %47, %44
  br label %105

50:                                               ; preds = %10
  %51 = load ptr, ptr %17, align 8, !tbaa !22
  %52 = icmp ne ptr %51, null
  br i1 %52, label %53, label %63

53:                                               ; preds = %50
  %54 = load i32, ptr %21, align 4, !tbaa !14
  %55 = sitofp i32 %54 to float
  %56 = load float, ptr %13, align 4, !tbaa !67
  %57 = load float, ptr %15, align 4, !tbaa !67
  %58 = call float @llvm.fmuladd.f32(float %55, float %56, float %57)
  %59 = fpext float %58 to double
  %60 = call double @llvm.floor.f64(double %59)
  %61 = fptosi double %60 to i32
  %62 = load ptr, ptr %17, align 8, !tbaa !22
  store i32 %61, ptr %62, align 4, !tbaa !14
  br label %63

63:                                               ; preds = %53, %50
  %64 = load ptr, ptr %18, align 8, !tbaa !22
  %65 = icmp ne ptr %64, null
  br i1 %65, label %66, label %77

66:                                               ; preds = %63
  %67 = load i32, ptr %24, align 4, !tbaa !14
  %68 = sub nsw i32 0, %67
  %69 = sitofp i32 %68 to float
  %70 = load float, ptr %14, align 4, !tbaa !67
  %71 = load float, ptr %16, align 4, !tbaa !67
  %72 = call float @llvm.fmuladd.f32(float %69, float %70, float %71)
  %73 = fpext float %72 to double
  %74 = call double @llvm.floor.f64(double %73)
  %75 = fptosi double %74 to i32
  %76 = load ptr, ptr %18, align 8, !tbaa !22
  store i32 %75, ptr %76, align 4, !tbaa !14
  br label %77

77:                                               ; preds = %66, %63
  %78 = load ptr, ptr %19, align 8, !tbaa !22
  %79 = icmp ne ptr %78, null
  br i1 %79, label %80, label %90

80:                                               ; preds = %77
  %81 = load i32, ptr %23, align 4, !tbaa !14
  %82 = sitofp i32 %81 to float
  %83 = load float, ptr %13, align 4, !tbaa !67
  %84 = load float, ptr %15, align 4, !tbaa !67
  %85 = call float @llvm.fmuladd.f32(float %82, float %83, float %84)
  %86 = fpext float %85 to double
  %87 = call double @llvm.ceil.f64(double %86)
  %88 = fptosi double %87 to i32
  %89 = load ptr, ptr %19, align 8, !tbaa !22
  store i32 %88, ptr %89, align 4, !tbaa !14
  br label %90

90:                                               ; preds = %80, %77
  %91 = load ptr, ptr %20, align 8, !tbaa !22
  %92 = icmp ne ptr %91, null
  br i1 %92, label %93, label %104

93:                                               ; preds = %90
  %94 = load i32, ptr %22, align 4, !tbaa !14
  %95 = sub nsw i32 0, %94
  %96 = sitofp i32 %95 to float
  %97 = load float, ptr %14, align 4, !tbaa !67
  %98 = load float, ptr %16, align 4, !tbaa !67
  %99 = call float @llvm.fmuladd.f32(float %96, float %97, float %98)
  %100 = fpext float %99 to double
  %101 = call double @llvm.ceil.f64(double %100)
  %102 = fptosi double %101 to i32
  %103 = load ptr, ptr %20, align 8, !tbaa !22
  store i32 %102, ptr %103, align 4, !tbaa !14
  br label %104

104:                                              ; preds = %93, %90
  br label %105

105:                                              ; preds = %104, %49
  call void @llvm.lifetime.end.p0(i64 4, ptr %24) #8
  call void @llvm.lifetime.end.p0(i64 4, ptr %23) #8
  call void @llvm.lifetime.end.p0(i64 4, ptr %22) #8
  call void @llvm.lifetime.end.p0(i64 4, ptr %21) #8
  ret void
}

; Function Attrs: nounwind uwtable
define i32 @stbtt_GetGlyphShape(ptr noundef %0, i32 noundef %1, ptr noundef %2) #0 {
  %4 = alloca i32, align 4
  %5 = alloca ptr, align 8
  %6 = alloca i32, align 4
  %7 = alloca ptr, align 8
  store ptr %0, ptr %5, align 8, !tbaa !28
  store i32 %1, ptr %6, align 4, !tbaa !14
  store ptr %2, ptr %7, align 8, !tbaa !3
  %8 = load ptr, ptr %5, align 8, !tbaa !28
  %9 = getelementptr inbounds nuw %struct.stbtt_fontinfo, ptr %8, i32 0, i32 14
  %10 = getelementptr inbounds nuw %struct.stbtt__buf, ptr %9, i32 0, i32 2
  %11 = load i32, ptr %10, align 4, !tbaa !49
  %12 = icmp ne i32 %11, 0
  br i1 %12, label %18, label %13

13:                                               ; preds = %3
  %14 = load ptr, ptr %5, align 8, !tbaa !28
  %15 = load i32, ptr %6, align 4, !tbaa !14
  %16 = load ptr, ptr %7, align 8, !tbaa !3
  %17 = call i32 @stbtt__GetGlyphShapeTT(ptr noundef %14, i32 noundef %15, ptr noundef %16)
  store i32 %17, ptr %4, align 4
  br label %23

18:                                               ; preds = %3
  %19 = load ptr, ptr %5, align 8, !tbaa !28
  %20 = load i32, ptr %6, align 4, !tbaa !14
  %21 = load ptr, ptr %7, align 8, !tbaa !3
  %22 = call i32 @stbtt__GetGlyphShapeT2(ptr noundef %19, i32 noundef %20, ptr noundef %21)
  store i32 %22, ptr %4, align 4
  br label %23

23:                                               ; preds = %18, %13
  %24 = load i32, ptr %4, align 4
  ret i32 %24
}

; Function Attrs: nounwind uwtable
define void @stbtt_MakeGlyphBitmapSubpixel(ptr noundef %0, ptr noundef %1, i32 noundef %2, i32 noundef %3, i32 noundef %4, float noundef %5, float noundef %6, float noundef %7, float noundef %8, i32 noundef %9) #0 {
  %11 = alloca ptr, align 8
  %12 = alloca ptr, align 8
  %13 = alloca i32, align 4
  %14 = alloca i32, align 4
  %15 = alloca i32, align 4
  %16 = alloca float, align 4
  %17 = alloca float, align 4
  %18 = alloca float, align 4
  %19 = alloca float, align 4
  %20 = alloca i32, align 4
  %21 = alloca i32, align 4
  %22 = alloca i32, align 4
  %23 = alloca ptr, align 8
  %24 = alloca i32, align 4
  %25 = alloca %struct.stbtt__bitmap, align 8
  store ptr %0, ptr %11, align 8, !tbaa !28
  store ptr %1, ptr %12, align 8, !tbaa !25
  store i32 %2, ptr %13, align 4, !tbaa !14
  store i32 %3, ptr %14, align 4, !tbaa !14
  store i32 %4, ptr %15, align 4, !tbaa !14
  store float %5, ptr %16, align 4, !tbaa !67
  store float %6, ptr %17, align 4, !tbaa !67
  store float %7, ptr %18, align 4, !tbaa !67
  store float %8, ptr %19, align 4, !tbaa !67
  store i32 %9, ptr %20, align 4, !tbaa !14
  call void @llvm.lifetime.start.p0(i64 4, ptr %21) #8
  call void @llvm.lifetime.start.p0(i64 4, ptr %22) #8
  call void @llvm.lifetime.start.p0(i64 8, ptr %23) #8
  call void @llvm.lifetime.start.p0(i64 4, ptr %24) #8
  %26 = load ptr, ptr %11, align 8, !tbaa !28
  %27 = load i32, ptr %20, align 4, !tbaa !14
  %28 = call i32 @stbtt_GetGlyphShape(ptr noundef %26, i32 noundef %27, ptr noundef %23)
  store i32 %28, ptr %24, align 4, !tbaa !14
  call void @llvm.lifetime.start.p0(i64 24, ptr %25) #8
  %29 = load ptr, ptr %11, align 8, !tbaa !28
  %30 = load i32, ptr %20, align 4, !tbaa !14
  %31 = load float, ptr %16, align 4, !tbaa !67
  %32 = load float, ptr %17, align 4, !tbaa !67
  %33 = load float, ptr %18, align 4, !tbaa !67
  %34 = load float, ptr %19, align 4, !tbaa !67
  call void @stbtt_GetGlyphBitmapBoxSubpixel(ptr noundef %29, i32 noundef %30, float noundef %31, float noundef %32, float noundef %33, float noundef %34, ptr noundef %21, ptr noundef %22, ptr noundef null, ptr noundef null)
  %35 = load ptr, ptr %12, align 8, !tbaa !25
  %36 = getelementptr inbounds nuw %struct.stbtt__bitmap, ptr %25, i32 0, i32 3
  store ptr %35, ptr %36, align 8, !tbaa !145
  %37 = load i32, ptr %13, align 4, !tbaa !14
  %38 = getelementptr inbounds nuw %struct.stbtt__bitmap, ptr %25, i32 0, i32 0
  store i32 %37, ptr %38, align 8, !tbaa !138
  %39 = load i32, ptr %14, align 4, !tbaa !14
  %40 = getelementptr inbounds nuw %struct.stbtt__bitmap, ptr %25, i32 0, i32 1
  store i32 %39, ptr %40, align 4, !tbaa !140
  %41 = load i32, ptr %15, align 4, !tbaa !14
  %42 = getelementptr inbounds nuw %struct.stbtt__bitmap, ptr %25, i32 0, i32 2
  store i32 %41, ptr %42, align 8, !tbaa !146
  %43 = getelementptr inbounds nuw %struct.stbtt__bitmap, ptr %25, i32 0, i32 0
  %44 = load i32, ptr %43, align 8, !tbaa !138
  %45 = icmp ne i32 %44, 0
  br i1 %45, label %46, label %62

46:                                               ; preds = %10
  %47 = getelementptr inbounds nuw %struct.stbtt__bitmap, ptr %25, i32 0, i32 1
  %48 = load i32, ptr %47, align 4, !tbaa !140
  %49 = icmp ne i32 %48, 0
  br i1 %49, label %50, label %62

50:                                               ; preds = %46
  %51 = load ptr, ptr %23, align 8, !tbaa !3
  %52 = load i32, ptr %24, align 4, !tbaa !14
  %53 = load float, ptr %16, align 4, !tbaa !67
  %54 = load float, ptr %17, align 4, !tbaa !67
  %55 = load float, ptr %18, align 4, !tbaa !67
  %56 = load float, ptr %19, align 4, !tbaa !67
  %57 = load i32, ptr %21, align 4, !tbaa !14
  %58 = load i32, ptr %22, align 4, !tbaa !14
  %59 = load ptr, ptr %11, align 8, !tbaa !28
  %60 = getelementptr inbounds nuw %struct.stbtt_fontinfo, ptr %59, i32 0, i32 0
  %61 = load ptr, ptr %60, align 8, !tbaa !165
  call void @stbtt_Rasterize(ptr noundef %25, float noundef 0x3FD6666660000000, ptr noundef %51, i32 noundef %52, float noundef %53, float noundef %54, float noundef %55, float noundef %56, i32 noundef %57, i32 noundef %58, i32 noundef 1, ptr noundef %61)
  br label %62

62:                                               ; preds = %50, %46, %10
  %63 = load ptr, ptr %23, align 8, !tbaa !3
  call void @free(ptr noundef %63) #8
  call void @llvm.lifetime.end.p0(i64 24, ptr %25) #8
  call void @llvm.lifetime.end.p0(i64 4, ptr %24) #8
  call void @llvm.lifetime.end.p0(i64 8, ptr %23) #8
  call void @llvm.lifetime.end.p0(i64 4, ptr %22) #8
  call void @llvm.lifetime.end.p0(i64 4, ptr %21) #8
  ret void
}