; Function Attrs: nounwind uwtable
define void @stbtt_MakeGlyphBitmapSubpixel(ptr noundef readonly captures(none) %0, ptr noundef %1, i32 noundef %2, i32 noundef %3, i32 noundef %4, float noundef %5, float noundef %6, float noundef %7, float noundef %8, i32 noundef %9) local_unnamed_addr #11 {
  %11 = alloca i32, align 4
  %12 = alloca ptr, align 8
  %13 = alloca i32, align 4
  %14 = alloca i32, align 4
  %15 = alloca i32, align 4
  %16 = alloca i32, align 4
  %17 = alloca %struct.stbtt__csctx, align 8
  %18 = alloca %struct.stbtt__csctx, align 8
  %19 = alloca ptr, align 8
  %20 = alloca %struct.stbtt__bitmap, align 8
  call void @llvm.lifetime.start.p0(i64 8, ptr nonnull %19) #32
  %21 = getelementptr inbounds nuw i8, ptr %0, i64 76
  %22 = load i32, ptr %21, align 4, !tbaa !39
  %.not.i = icmp eq i32 %22, 0
  br i1 %.not.i, label %23, label %25

23:                                               ; preds = %10
  %24 = call i32 @stbtt__GetGlyphShapeTT(ptr noundef nonnull readonly %0, i32 noundef %9, ptr noundef nonnull %19)
  br label %stbtt_GetGlyphShape.exit

25:                                               ; preds = %10
  call void @llvm.lifetime.start.p0(i64 56, ptr nonnull %17) #32
  call void @llvm.memset.p0.i64(ptr noundef nonnull align 8 dereferenceable(56) %17, i8 0, i64 56, i1 false)
  store i32 1, ptr %17, align 8
  call void @llvm.lifetime.start.p0(i64 56, ptr nonnull %18) #32
  call void @llvm.memset.p0.i64(ptr noundef nonnull align 8 dereferenceable(56) %18, i8 0, i64 56, i1 false)
  %26 = call i32 @stbtt__run_charstring(ptr noundef nonnull readonly %0, i32 noundef %9, ptr noundef nonnull %17)
  %.not.i.i = icmp eq i32 %26, 0
  br i1 %.not.i.i, label %38, label %27

27:                                               ; preds = %25
  %28 = getelementptr inbounds nuw i8, ptr %17, i64 48
  %29 = load i32, ptr %28, align 8, !tbaa !40
  %30 = sext i32 %29 to i64
  %31 = mul nsw i64 %30, 14
  %32 = call noalias ptr @malloc(i64 noundef %31) #33
  store ptr %32, ptr %19, align 8, !tbaa !43
  %33 = getelementptr inbounds nuw i8, ptr %18, i64 40
  store ptr %32, ptr %33, align 8, !tbaa !44
  %34 = call i32 @stbtt__run_charstring(ptr noundef nonnull readonly %0, i32 noundef %9, ptr noundef nonnull %18)
  %.not7.i.i = icmp eq i32 %34, 0
  br i1 %.not7.i.i, label %38, label %35

35:                                               ; preds = %27
  %36 = getelementptr inbounds nuw i8, ptr %18, i64 48
  %37 = load i32, ptr %36, align 8, !tbaa !40
  br label %stbtt__GetGlyphShapeT2.exit.i

38:                                               ; preds = %27, %25
  store ptr null, ptr %19, align 8, !tbaa !43
  br label %stbtt__GetGlyphShapeT2.exit.i

stbtt__GetGlyphShapeT2.exit.i:                    ; preds = %38, %35
  %.0.i.i = phi i32 [ %37, %35 ], [ 0, %38 ]
  call void @llvm.lifetime.end.p0(i64 56, ptr nonnull %18) #32
  call void @llvm.lifetime.end.p0(i64 56, ptr nonnull %17) #32
  br label %stbtt_GetGlyphShape.exit

stbtt_GetGlyphShape.exit:                         ; preds = %23, %stbtt__GetGlyphShapeT2.exit.i
  %.0.i = phi i32 [ %.0.i.i, %stbtt__GetGlyphShapeT2.exit.i ], [ %24, %23 ]
  call void @llvm.lifetime.start.p0(i64 24, ptr nonnull %20) #32
  call void @llvm.lifetime.start.p0(i64 4, ptr nonnull %13) #32
  store i32 0, ptr %13, align 4, !tbaa !17
  call void @llvm.lifetime.start.p0(i64 4, ptr nonnull %14) #32
  call void @llvm.lifetime.start.p0(i64 4, ptr nonnull %15) #32
  call void @llvm.lifetime.start.p0(i64 4, ptr nonnull %16) #32
  %39 = call i32 @stbtt_GetGlyphBox(ptr noundef nonnull readonly %0, i32 noundef %9, ptr noundef nonnull %13, ptr noundef nonnull %14, ptr noundef nonnull %15, ptr noundef nonnull %16)
  %.not.i19 = icmp eq i32 %39, 0
  br i1 %.not.i19, label %stbtt_GetGlyphBitmapBoxSubpixel.exit, label %40

40:                                               ; preds = %stbtt_GetGlyphShape.exit
  %41 = load i32, ptr %13, align 4, !tbaa !17
  %42 = sitofp i32 %41 to float
  %43 = call float @llvm.fmuladd.f32(float %42, float %5, float %7)
  %44 = call float @llvm.floor.f32(float %43)
  %45 = fptosi float %44 to i32
  %46 = load i32, ptr %16, align 4, !tbaa !17
  %47 = sub nsw i32 0, %46
  %48 = sitofp i32 %47 to float
  %49 = call float @llvm.fmuladd.f32(float %48, float %6, float %8)
  %50 = call float @llvm.floor.f32(float %49)
  %51 = fptosi float %50 to i32
  br label %stbtt_GetGlyphBitmapBoxSubpixel.exit

stbtt_GetGlyphBitmapBoxSubpixel.exit:             ; preds = %stbtt_GetGlyphShape.exit, %40
  %.022 = phi i32 [ %45, %40 ], [ 0, %stbtt_GetGlyphShape.exit ]
  %.0 = phi i32 [ %51, %40 ], [ 0, %stbtt_GetGlyphShape.exit ]
  call void @llvm.lifetime.end.p0(i64 4, ptr nonnull %16) #32
  call void @llvm.lifetime.end.p0(i64 4, ptr nonnull %15) #32
  call void @llvm.lifetime.end.p0(i64 4, ptr nonnull %14) #32
  call void @llvm.lifetime.end.p0(i64 4, ptr nonnull %13) #32
  %52 = getelementptr inbounds nuw i8, ptr %20, i64 16
  store ptr %1, ptr %52, align 8, !tbaa !124
  store i32 %2, ptr %20, align 8, !tbaa !119
  %53 = getelementptr inbounds nuw i8, ptr %20, i64 4
  store i32 %3, ptr %53, align 4, !tbaa !121
  %54 = getelementptr inbounds nuw i8, ptr %20, i64 8
  store i32 %4, ptr %54, align 8, !tbaa !125
  %55 = icmp ne i32 %2, 0
  %56 = icmp ne i32 %3, 0
  %or.cond = and i1 %55, %56
  %.pre = load ptr, ptr %19, align 8, !tbaa !43
  br i1 %or.cond, label %57, label %65

57:                                               ; preds = %stbtt_GetGlyphBitmapBoxSubpixel.exit
  %58 = fcmp ogt float %5, %6
  %59 = select i1 %58, float %6, float %5
  call void @llvm.lifetime.start.p0(i64 4, ptr nonnull %11) #32
  store i32 0, ptr %11, align 4, !tbaa !17
  call void @llvm.lifetime.start.p0(i64 8, ptr nonnull %12) #32
  store ptr null, ptr %12, align 8, !tbaa !140
  %60 = fdiv float 0x3FD6666660000000, %59
  %61 = call ptr @stbtt_FlattenCurves(ptr noundef readonly %.pre, i32 noundef %.0.i, float noundef %60, ptr noundef nonnull %12, ptr noundef nonnull %11, ptr readnone poison)
  %.not.i20 = icmp eq ptr %61, null
  br i1 %.not.i20, label %stbtt_Rasterize.exit, label %62

62:                                               ; preds = %57
  %63 = load ptr, ptr %12, align 8, !tbaa !140
  %64 = load i32, ptr %11, align 4, !tbaa !17
  call void @stbtt__rasterize(ptr noundef nonnull readonly %20, ptr noundef nonnull %61, ptr noundef %63, i32 noundef %64, float noundef %5, float noundef %6, float noundef %7, float noundef %8, i32 noundef %.022, i32 noundef %.0, i32 noundef 1, ptr readnone poison)
  call void @free(ptr noundef %63) #32
  call void @free(ptr noundef nonnull %61) #32
  br label %stbtt_Rasterize.exit

stbtt_Rasterize.exit:                             ; preds = %57, %62
  call void @llvm.lifetime.end.p0(i64 8, ptr nonnull %12) #32
  call void @llvm.lifetime.end.p0(i64 4, ptr nonnull %11) #32
  br label %65

65:                                               ; preds = %stbtt_Rasterize.exit, %stbtt_GetGlyphBitmapBoxSubpixel.exit
  call void @free(ptr noundef %.pre) #32
  call void @llvm.lifetime.end.p0(i64 24, ptr nonnull %20) #32
  call void @llvm.lifetime.end.p0(i64 8, ptr nonnull %19) #32
  ret void
}